target datalayout = "e-m:e-p270:32:32-p271:32:32-p272:64:64-i64:64-i128:128-f80:128-n8:16:32:64-S128"
target triple = "x86_64-pc-linux-gnu"

%class.Register = type { i32 }

@.str = private unnamed_addr constant [42 x i8] c"src/hotspot/cpu/x86/templateTable_x86.cpp\00", align 1
@_ZN13TemplateTable5_masmE = external global ptr, align 8
@_ZL3rax = internal constant %class.Register zeroinitializer, align 4
@_ZL3rcx = internal constant %class.Register { i32 1 }, align 4
@PrintInterpreter = external global i8, align 1

; Function Attrs: mustprogress nounwind uwtable
define linkonce_odr hidden noundef ptr @_ZN12Disassembler4hookI25InterpreterMacroAssemblerEEPT_PKciS3_(ptr noundef %0, i32 noundef %1, ptr noundef %2) #1 comdat align 2 {
  %4 = alloca ptr, align 8
  %5 = alloca i32, align 4
  %6 = alloca ptr, align 8
  store ptr %0, ptr %4, align 8
  store i32 %1, ptr %5, align 4
  store ptr %2, ptr %6, align 8
  %7 = load i8, ptr @PrintInterpreter, align 1
  %8 = trunc i8 %7 to i1
  br i1 %8, label %9, label %13

9:                                                ; preds = %3
  %10 = load ptr, ptr %4, align 8
  %11 = load i32, ptr %5, align 4
  %12 = load ptr, ptr %6, align 8
  call void @_ZN12Disassembler5_hookEPKciP14MacroAssembler(ptr noundef %10, i32 noundef %11, ptr noundef %12)
  br label %13

13:                                               ; preds = %9, %3
  %14 = load ptr, ptr %6, align 8
  ret ptr %14
}

; Function Attrs: mustprogress nounwind uwtable
define hidden void @_ZN13TemplateTable7dup2_x2Ev() #1 align 2 {
  %1 = alloca %class.Register, align 4
  %2 = alloca %class.Register, align 4
  %3 = alloca %class.Register, align 4
  %4 = alloca %class.Register, align 4
  %5 = alloca %class.Register, align 4
  %6 = alloca %class.Register, align 4
  %7 = alloca %class.Register, align 4
  %8 = alloca %class.Register, align 4
  %9 = alloca %class.Register, align 4
  %10 = alloca %class.Register, align 4
  %11 = alloca %class.Register, align 4
  call void @_ZN13TemplateTable10transitionE8TosStateS0_(i32 noundef 9, i32 noundef 9)
  %12 = load ptr, ptr @_ZN13TemplateTable5_masmE, align 8
  %13 = call noundef ptr @_ZN12Disassembler4hookI25InterpreterMacroAssemblerEEPT_PKciS3_(ptr noundef @.str, i32 noundef 1323, ptr noundef %12)
  call void @llvm.memcpy.p0.p0.i64(ptr align 4 %1, ptr align 4 @_ZL3rcx, i64 4, i1 false)
  %14 = getelementptr inbounds %class.Register, ptr %1, i32 0, i32 0
  %15 = load i32, ptr %14, align 4
  call void @_ZN25InterpreterMacroAssembler8load_ptrEi8Register(ptr noundef nonnull align 8 dereferenceable(48) %13, i32 noundef 0, i32 %15)
  %16 = load ptr, ptr @_ZN13TemplateTable5_masmE, align 8
  %17 = call noundef ptr @_ZN12Disassembler4hookI25InterpreterMacroAssemblerEEPT_PKciS3_(ptr noundef @.str, i32 noundef 1324, ptr noundef %16)
  call void @llvm.memcpy.p0.p0.i64(ptr align 4 %2, ptr align 4 @_ZL3rax, i64 4, i1 false)
  %18 = getelementptr inbounds %class.Register, ptr %2, i32 0, i32 0
  %19 = load i32, ptr %18, align 4
  call void @_ZN25InterpreterMacroAssembler8load_ptrEi8Register(ptr noundef nonnull align 8 dereferenceable(48) %17, i32 noundef 1, i32 %19)
  %20 = load ptr, ptr @_ZN13TemplateTable5_masmE, align 8
  %21 = call noundef ptr @_ZN12Disassembler4hookI25InterpreterMacroAssemblerEEPT_PKciS3_(ptr noundef @.str, i32 noundef 1325, ptr noundef %20)
  call void @llvm.memcpy.p0.p0.i64(ptr align 4 %3, ptr align 4 @_ZL3rax, i64 4, i1 false)
  %22 = getelementptr inbounds %class.Register, ptr %3, i32 0, i32 0
  %23 = load i32, ptr %22, align 4
  call void @_ZN25InterpreterMacroAssembler8push_ptrE8Register(ptr noundef nonnull align 8 dereferenceable(48) %21, i32 %23)
  %24 = load ptr, ptr @_ZN13TemplateTable5_masmE, align 8
  %25 = call noundef ptr @_ZN12Disassembler4hookI25InterpreterMacroAssemblerEEPT_PKciS3_(ptr noundef @.str, i32 noundef 1326, ptr noundef %24)
  call void @llvm.memcpy.p0.p0.i64(ptr align 4 %4, ptr align 4 @_ZL3rcx, i64 4, i1 false)
  %26 = getelementptr inbounds %class.Register, ptr %4, i32 0, i32 0
  %27 = load i32, ptr %26, align 4
  call void @_ZN25InterpreterMacroAssembler8push_ptrE8Register(ptr noundef nonnull align 8 dereferenceable(48) %25, i32 %27)
  %28 = load ptr, ptr @_ZN13TemplateTable5_masmE, align 8
  %29 = call noundef ptr @_ZN12Disassembler4hookI25InterpreterMacroAssemblerEEPT_PKciS3_(ptr noundef @.str, i32 noundef 1328, ptr noundef %28)
  call void @llvm.memcpy.p0.p0.i64(ptr align 4 %5, ptr align 4 @_ZL3rax, i64 4, i1 false)
  %30 = getelementptr inbounds %class.Register, ptr %5, i32 0, i32 0
  %31 = load i32, ptr %30, align 4
  call void @_ZN25InterpreterMacroAssembler8load_ptrEi8Register(ptr noundef nonnull align 8 dereferenceable(48) %29, i32 noundef 4, i32 %31)
  %32 = load ptr, ptr @_ZN13TemplateTable5_masmE, align 8
  %33 = call noundef ptr @_ZN12Disassembler4hookI25InterpreterMacroAssemblerEEPT_PKciS3_(ptr noundef @.str, i32 noundef 1329, ptr noundef %32)
  call void @llvm.memcpy.p0.p0.i64(ptr align 4 %6, ptr align 4 @_ZL3rax, i64 4, i1 false)
  %34 = getelementptr inbounds %class.Register, ptr %6, i32 0, i32 0
  %35 = load i32, ptr %34, align 4
  call void @_ZN25InterpreterMacroAssembler9store_ptrEi8Register(ptr noundef nonnull align 8 dereferenceable(48) %33, i32 noundef 2, i32 %35)
  %36 = load ptr, ptr @_ZN13TemplateTable5_masmE, align 8
  %37 = call noundef ptr @_ZN12Disassembler4hookI25InterpreterMacroAssemblerEEPT_PKciS3_(ptr noundef @.str, i32 noundef 1330, ptr noundef %36)
  call void @llvm.memcpy.p0.p0.i64(ptr align 4 %7, ptr align 4 @_ZL3rcx, i64 4, i1 false)
  %38 = getelementptr inbounds %class.Register, ptr %7, i32 0, i32 0
  %39 = load i32, ptr %38, align 4
  call void @_ZN25InterpreterMacroAssembler9store_ptrEi8Register(ptr noundef nonnull align 8 dereferenceable(48) %37, i32 noundef 4, i32 %39)
  %40 = load ptr, ptr @_ZN13TemplateTable5_masmE, align 8
  %41 = call noundef ptr @_ZN12Disassembler4hookI25InterpreterMacroAssemblerEEPT_PKciS3_(ptr noundef @.str, i32 noundef 1332, ptr noundef %40)
  call void @llvm.memcpy.p0.p0.i64(ptr align 4 %8, ptr align 4 @_ZL3rcx, i64 4, i1 false)
  %42 = getelementptr inbounds %class.Register, ptr %8, i32 0, i32 0
  %43 = load i32, ptr %42, align 4
  call void @_ZN25InterpreterMacroAssembler8load_ptrEi8Register(ptr noundef nonnull align 8 dereferenceable(48) %41, i32 noundef 5, i32 %43)
  %44 = load ptr, ptr @_ZN13TemplateTable5_masmE, align 8
  %45 = call noundef ptr @_ZN12Disassembler4hookI25InterpreterMacroAssemblerEEPT_PKciS3_(ptr noundef @.str, i32 noundef 1333, ptr noundef %44)
  call void @llvm.memcpy.p0.p0.i64(ptr align 4 %9, ptr align 4 @_ZL3rax, i64 4, i1 false)
  %46 = getelementptr inbounds %class.Register, ptr %9, i32 0, i32 0
  %47 = load i32, ptr %46, align 4
  call void @_ZN25InterpreterMacroAssembler8load_ptrEi8Register(ptr noundef nonnull align 8 dereferenceable(48) %45, i32 noundef 3, i32 %47)
  %48 = load ptr, ptr @_ZN13TemplateTable5_masmE, align 8
  %49 = call noundef ptr @_ZN12Disassembler4hookI25InterpreterMacroAssemblerEEPT_PKciS3_(ptr noundef @.str, i32 noundef 1334, ptr noundef %48)
  call void @llvm.memcpy.p0.p0.i64(ptr align 4 %10, ptr align 4 @_ZL3rcx, i64 4, i1 false)
  %50 = getelementptr inbounds %class.Register, ptr %10, i32 0, i32 0
  %51 = load i32, ptr %50, align 4
  call void @_ZN25InterpreterMacroAssembler9store_ptrEi8Register(ptr noundef nonnull align 8 dereferenceable(48) %49, i32 noundef 3, i32 %51)
  %52 = load ptr, ptr @_ZN13TemplateTable5_masmE, align 8
  %53 = call noundef ptr @_ZN12Disassembler4hookI25InterpreterMacroAssemblerEEPT_PKciS3_(ptr noundef @.str, i32 noundef 1335, ptr noundef %52)
  call void @llvm.memcpy.p0.p0.i64(ptr align 4 %11, ptr align 4 @_ZL3rax, i64 4, i1 false)
  %54 = getelementptr inbounds %class.Register, ptr %11, i32 0, i32 0
  %55 = load i32, ptr %54, align 4
  call void @_ZN25InterpreterMacroAssembler9store_ptrEi8Register(ptr noundef nonnull align 8 dereferenceable(48) %53, i32 noundef 5, i32 %55)
  ret void
}