; Function Attrs: mustprogress nounwind uwtable
define hidden void @_ZN13TemplateTable7dup2_x2Ev() local_unnamed_addr #0 align 2 {
  tail call void @_ZN13TemplateTable10transitionE8TosStateS0_(i32 noundef 9, i32 noundef 9) #8
  %1 = load ptr, ptr @_ZN13TemplateTable5_masmE, align 8
  %2 = load i8, ptr @PrintInterpreter, align 1
  %3 = trunc i8 %2 to i1
  br i1 %3, label %4, label %_ZN12Disassembler4hookI25InterpreterMacroAssemblerEEPT_PKciS3_.exit

4:                                                ; preds = %0
  tail call void @_ZN12Disassembler5_hookEPKciP14MacroAssembler(ptr noundef nonnull @.str, i32 noundef 1323, ptr noundef %1) #8
  br label %_ZN12Disassembler4hookI25InterpreterMacroAssemblerEEPT_PKciS3_.exit

_ZN12Disassembler4hookI25InterpreterMacroAssemblerEEPT_PKciS3_.exit: ; preds = %0, %4
  tail call void @_ZN25InterpreterMacroAssembler8load_ptrEi8Register(ptr noundef nonnull align 8 dereferenceable(48) %1, i32 noundef 0, i32 1) #8
  %5 = load ptr, ptr @_ZN13TemplateTable5_masmE, align 8
  %6 = load i8, ptr @PrintInterpreter, align 1
  %7 = trunc i8 %6 to i1
  br i1 %7, label %8, label %_ZN12Disassembler4hookI25InterpreterMacroAssemblerEEPT_PKciS3_.exit11

8:                                                ; preds = %_ZN12Disassembler4hookI25InterpreterMacroAssemblerEEPT_PKciS3_.exit
  tail call void @_ZN12Disassembler5_hookEPKciP14MacroAssembler(ptr noundef nonnull @.str, i32 noundef 1324, ptr noundef %5) #8
  br label %_ZN12Disassembler4hookI25InterpreterMacroAssemblerEEPT_PKciS3_.exit11

_ZN12Disassembler4hookI25InterpreterMacroAssemblerEEPT_PKciS3_.exit11: ; preds = %_ZN12Disassembler4hookI25InterpreterMacroAssemblerEEPT_PKciS3_.exit, %8
  tail call void @_ZN25InterpreterMacroAssembler8load_ptrEi8Register(ptr noundef nonnull align 8 dereferenceable(48) %5, i32 noundef 1, i32 0) #8
  %9 = load ptr, ptr @_ZN13TemplateTable5_masmE, align 8
  %10 = load i8, ptr @PrintInterpreter, align 1
  %11 = trunc i8 %10 to i1
  br i1 %11, label %12, label %_ZN12Disassembler4hookI25InterpreterMacroAssemblerEEPT_PKciS3_.exit12

12:                                               ; preds = %_ZN12Disassembler4hookI25InterpreterMacroAssemblerEEPT_PKciS3_.exit11
  tail call void @_ZN12Disassembler5_hookEPKciP14MacroAssembler(ptr noundef nonnull @.str, i32 noundef 1325, ptr noundef %9) #8
  br label %_ZN12Disassembler4hookI25InterpreterMacroAssemblerEEPT_PKciS3_.exit12

_ZN12Disassembler4hookI25InterpreterMacroAssemblerEEPT_PKciS3_.exit12: ; preds = %_ZN12Disassembler4hookI25InterpreterMacroAssemblerEEPT_PKciS3_.exit11, %12
  tail call void @_ZN25InterpreterMacroAssembler8push_ptrE8Register(ptr noundef nonnull align 8 dereferenceable(48) %9, i32 0) #8
  %13 = load ptr, ptr @_ZN13TemplateTable5_masmE, align 8
  %14 = load i8, ptr @PrintInterpreter, align 1
  %15 = trunc i8 %14 to i1
  br i1 %15, label %16, label %_ZN12Disassembler4hookI25InterpreterMacroAssemblerEEPT_PKciS3_.exit13

16:                                               ; preds = %_ZN12Disassembler4hookI25InterpreterMacroAssemblerEEPT_PKciS3_.exit12
  tail call void @_ZN12Disassembler5_hookEPKciP14MacroAssembler(ptr noundef nonnull @.str, i32 noundef 1326, ptr noundef %13) #8
  br label %_ZN12Disassembler4hookI25InterpreterMacroAssemblerEEPT_PKciS3_.exit13

_ZN12Disassembler4hookI25InterpreterMacroAssemblerEEPT_PKciS3_.exit13: ; preds = %_ZN12Disassembler4hookI25InterpreterMacroAssemblerEEPT_PKciS3_.exit12, %16
  tail call void @_ZN25InterpreterMacroAssembler8push_ptrE8Register(ptr noundef nonnull align 8 dereferenceable(48) %13, i32 1) #8
  %17 = load ptr, ptr @_ZN13TemplateTable5_masmE, align 8
  %18 = load i8, ptr @PrintInterpreter, align 1
  %19 = trunc i8 %18 to i1
  br i1 %19, label %20, label %_ZN12Disassembler4hookI25InterpreterMacroAssemblerEEPT_PKciS3_.exit14

20:                                               ; preds = %_ZN12Disassembler4hookI25InterpreterMacroAssemblerEEPT_PKciS3_.exit13
  tail call void @_ZN12Disassembler5_hookEPKciP14MacroAssembler(ptr noundef nonnull @.str, i32 noundef 1328, ptr noundef %17) #8
  br label %_ZN12Disassembler4hookI25InterpreterMacroAssemblerEEPT_PKciS3_.exit14

_ZN12Disassembler4hookI25InterpreterMacroAssemblerEEPT_PKciS3_.exit14: ; preds = %_ZN12Disassembler4hookI25InterpreterMacroAssemblerEEPT_PKciS3_.exit13, %20
  tail call void @_ZN25InterpreterMacroAssembler8load_ptrEi8Register(ptr noundef nonnull align 8 dereferenceable(48) %17, i32 noundef 4, i32 0) #8
  %21 = load ptr, ptr @_ZN13TemplateTable5_masmE, align 8
  %22 = load i8, ptr @PrintInterpreter, align 1
  %23 = trunc i8 %22 to i1
  br i1 %23, label %24, label %_ZN12Disassembler4hookI25InterpreterMacroAssemblerEEPT_PKciS3_.exit15

24:                                               ; preds = %_ZN12Disassembler4hookI25InterpreterMacroAssemblerEEPT_PKciS3_.exit14
  tail call void @_ZN12Disassembler5_hookEPKciP14MacroAssembler(ptr noundef nonnull @.str, i32 noundef 1329, ptr noundef %21) #8
  br label %_ZN12Disassembler4hookI25InterpreterMacroAssemblerEEPT_PKciS3_.exit15

_ZN12Disassembler4hookI25InterpreterMacroAssemblerEEPT_PKciS3_.exit15: ; preds = %_ZN12Disassembler4hookI25InterpreterMacroAssemblerEEPT_PKciS3_.exit14, %24
  tail call void @_ZN25InterpreterMacroAssembler9store_ptrEi8Register(ptr noundef nonnull align 8 dereferenceable(48) %21, i32 noundef 2, i32 0) #8
  %25 = load ptr, ptr @_ZN13TemplateTable5_masmE, align 8
  %26 = load i8, ptr @PrintInterpreter, align 1
  %27 = trunc i8 %26 to i1
  br i1 %27, label %28, label %_ZN12Disassembler4hookI25InterpreterMacroAssemblerEEPT_PKciS3_.exit16

28:                                               ; preds = %_ZN12Disassembler4hookI25InterpreterMacroAssemblerEEPT_PKciS3_.exit15
  tail call void @_ZN12Disassembler5_hookEPKciP14MacroAssembler(ptr noundef nonnull @.str, i32 noundef 1330, ptr noundef %25) #8
  br label %_ZN12Disassembler4hookI25InterpreterMacroAssemblerEEPT_PKciS3_.exit16

_ZN12Disassembler4hookI25InterpreterMacroAssemblerEEPT_PKciS3_.exit16: ; preds = %_ZN12Disassembler4hookI25InterpreterMacroAssemblerEEPT_PKciS3_.exit15, %28
  tail call void @_ZN25InterpreterMacroAssembler9store_ptrEi8Register(ptr noundef nonnull align 8 dereferenceable(48) %25, i32 noundef 4, i32 1) #8
  %29 = load ptr, ptr @_ZN13TemplateTable5_masmE, align 8
  %30 = load i8, ptr @PrintInterpreter, align 1
  %31 = trunc i8 %30 to i1
  br i1 %31, label %32, label %_ZN12Disassembler4hookI25InterpreterMacroAssemblerEEPT_PKciS3_.exit17

32:                                               ; preds = %_ZN12Disassembler4hookI25InterpreterMacroAssemblerEEPT_PKciS3_.exit16
  tail call void @_ZN12Disassembler5_hookEPKciP14MacroAssembler(ptr noundef nonnull @.str, i32 noundef 1332, ptr noundef %29) #8
  br label %_ZN12Disassembler4hookI25InterpreterMacroAssemblerEEPT_PKciS3_.exit17

_ZN12Disassembler4hookI25InterpreterMacroAssemblerEEPT_PKciS3_.exit17: ; preds = %_ZN12Disassembler4hookI25InterpreterMacroAssemblerEEPT_PKciS3_.exit16, %32
  tail call void @_ZN25InterpreterMacroAssembler8load_ptrEi8Register(ptr noundef nonnull align 8 dereferenceable(48) %29, i32 noundef 5, i32 1) #8
  %33 = load ptr, ptr @_ZN13TemplateTable5_masmE, align 8
  %34 = load i8, ptr @PrintInterpreter, align 1
  %35 = trunc i8 %34 to i1
  br i1 %35, label %36, label %_ZN12Disassembler4hookI25InterpreterMacroAssemblerEEPT_PKciS3_.exit18

36:                                               ; preds = %_ZN12Disassembler4hookI25InterpreterMacroAssemblerEEPT_PKciS3_.exit17
  tail call void @_ZN12Disassembler5_hookEPKciP14MacroAssembler(ptr noundef nonnull @.str, i32 noundef 1333, ptr noundef %33) #8
  br label %_ZN12Disassembler4hookI25InterpreterMacroAssemblerEEPT_PKciS3_.exit18

_ZN12Disassembler4hookI25InterpreterMacroAssemblerEEPT_PKciS3_.exit18: ; preds = %_ZN12Disassembler4hookI25InterpreterMacroAssemblerEEPT_PKciS3_.exit17, %36
  tail call void @_ZN25InterpreterMacroAssembler8load_ptrEi8Register(ptr noundef nonnull align 8 dereferenceable(48) %33, i32 noundef 3, i32 0) #8
  %37 = load ptr, ptr @_ZN13TemplateTable5_masmE, align 8
  %38 = load i8, ptr @PrintInterpreter, align 1
  %39 = trunc i8 %38 to i1
  br i1 %39, label %40, label %_ZN12Disassembler4hookI25InterpreterMacroAssemblerEEPT_PKciS3_.exit19

40:                                               ; preds = %_ZN12Disassembler4hookI25InterpreterMacroAssemblerEEPT_PKciS3_.exit18
  tail call void @_ZN12Disassembler5_hookEPKciP14MacroAssembler(ptr noundef nonnull @.str, i32 noundef 1334, ptr noundef %37) #8
  br label %_ZN12Disassembler4hookI25InterpreterMacroAssemblerEEPT_PKciS3_.exit19

_ZN12Disassembler4hookI25InterpreterMacroAssemblerEEPT_PKciS3_.exit19: ; preds = %_ZN12Disassembler4hookI25InterpreterMacroAssemblerEEPT_PKciS3_.exit18, %40
  tail call void @_ZN25InterpreterMacroAssembler9store_ptrEi8Register(ptr noundef nonnull align 8 dereferenceable(48) %37, i32 noundef 3, i32 1) #8
  %41 = load ptr, ptr @_ZN13TemplateTable5_masmE, align 8
  %42 = load i8, ptr @PrintInterpreter, align 1
  %43 = trunc i8 %42 to i1
  br i1 %43, label %44, label %_ZN12Disassembler4hookI25InterpreterMacroAssemblerEEPT_PKciS3_.exit20

44:                                               ; preds = %_ZN12Disassembler4hookI25InterpreterMacroAssemblerEEPT_PKciS3_.exit19
  tail call void @_ZN12Disassembler5_hookEPKciP14MacroAssembler(ptr noundef nonnull @.str, i32 noundef 1335, ptr noundef %41) #8
  br label %_ZN12Disassembler4hookI25InterpreterMacroAssemblerEEPT_PKciS3_.exit20

_ZN12Disassembler4hookI25InterpreterMacroAssemblerEEPT_PKciS3_.exit20: ; preds = %_ZN12Disassembler4hookI25InterpreterMacroAssemblerEEPT_PKciS3_.exit19, %44
  tail call void @_ZN25InterpreterMacroAssembler9store_ptrEi8Register(ptr noundef nonnull align 8 dereferenceable(48) %41, i32 noundef 5, i32 0) #8
  ret void
}